target datalayout = "e-m:e-p270:32:32-p271:32:32-p272:64:64-i64:64-i128:128-f80:128-n8:16:32:64-S128"
target triple = "x86_64-pc-linux-gnu"

%struct.AVProbeData = type { ptr, ptr, i32, ptr }

@.str.2 = private unnamed_addr constant [33 x i8] c"Invalid LC3 sample rate: %d Hz.\0A\00", align 1
@.str.3 = private unnamed_addr constant [38 x i8] c"Invalid LC3 frame duration: %.1f ms.\0A\00", align 1

; Function Attrs: nounwind uwtable
define internal i32 @check_frame_length(ptr noundef %0, i32 noundef %1, i32 noundef %2) #0 {
  %4 = alloca i32, align 4
  %5 = alloca ptr, align 8
  %6 = alloca i32, align 4
  %7 = alloca i32, align 4
  store ptr %0, ptr %5, align 8, !tbaa !82
  store i32 %1, ptr %6, align 4, !tbaa !15
  store i32 %2, ptr %7, align 4, !tbaa !15
  %8 = load i32, ptr %6, align 4, !tbaa !15
  %9 = icmp ne i32 %8, 8000
  br i1 %9, label %10, label %32

10:                                               ; preds = %3
  %11 = load i32, ptr %6, align 4, !tbaa !15
  %12 = icmp ne i32 %11, 16000
  br i1 %12, label %13, label %32

13:                                               ; preds = %10
  %14 = load i32, ptr %6, align 4, !tbaa !15
  %15 = icmp ne i32 %14, 24000
  br i1 %15, label %16, label %32

16:                                               ; preds = %13
  %17 = load i32, ptr %6, align 4, !tbaa !15
  %18 = icmp ne i32 %17, 32000
  br i1 %18, label %19, label %32

19:                                               ; preds = %16
  %20 = load i32, ptr %6, align 4, !tbaa !15
  %21 = icmp ne i32 %20, 48000
  br i1 %21, label %22, label %32

22:                                               ; preds = %19
  %23 = load i32, ptr %6, align 4, !tbaa !15
  %24 = icmp ne i32 %23, 96000
  br i1 %24, label %25, label %32

25:                                               ; preds = %22
  %26 = load ptr, ptr %5, align 8, !tbaa !82
  %27 = icmp ne ptr %26, null
  br i1 %27, label %28, label %31

28:                                               ; preds = %25
  %29 = load ptr, ptr %5, align 8, !tbaa !82
  %30 = load i32, ptr %6, align 4, !tbaa !15
  call void (ptr, i32, ptr, ...) @av_log(ptr noundef %29, i32 noundef 16, ptr noundef @.str.2, i32 noundef %30)
  br label %31

31:                                               ; preds = %28, %25
  store i32 -1, ptr %4, align 4
  br label %55

32:                                               ; preds = %22, %19, %16, %13, %10, %3
  %33 = load i32, ptr %7, align 4, !tbaa !15
  %34 = icmp ne i32 %33, 2500
  br i1 %34, label %35, label %54

35:                                               ; preds = %32
  %36 = load i32, ptr %7, align 4, !tbaa !15
  %37 = icmp ne i32 %36, 5000
  br i1 %37, label %38, label %54

38:                                               ; preds = %35
  %39 = load i32, ptr %7, align 4, !tbaa !15
  %40 = icmp ne i32 %39, 7500
  br i1 %40, label %41, label %54

41:                                               ; preds = %38
  %42 = load i32, ptr %7, align 4, !tbaa !15
  %43 = icmp ne i32 %42, 10000
  br i1 %43, label %44, label %54

44:                                               ; preds = %41
  %45 = load ptr, ptr %5, align 8, !tbaa !82
  %46 = icmp ne ptr %45, null
  br i1 %46, label %47, label %53

47:                                               ; preds = %44
  %48 = load ptr, ptr %5, align 8, !tbaa !82
  %49 = load i32, ptr %7, align 4, !tbaa !15
  %50 = sitofp i32 %49 to float
  %51 = fdiv nsz float %50, 1.000000e+03
  %52 = fpext nsz float %51 to double
  call void (ptr, i32, ptr, ...) @av_log(ptr noundef %48, i32 noundef 16, ptr noundef @.str.3, double noundef %52)
  br label %53

53:                                               ; preds = %47, %44
  store i32 -1, ptr %4, align 4
  br label %55

54:                                               ; preds = %41, %38, %35, %32
  store i32 0, ptr %4, align 4
  br label %55

55:                                               ; preds = %54, %53, %31
  %56 = load i32, ptr %4, align 4
  ret i32 %56
}

; Function Attrs: alwaysinline nounwind willreturn memory(none) uwtable
define internal zeroext i16 @av_bswap16(i16 noundef zeroext %0) #2 {
  %2 = alloca i16, align 2
  store i16 %0, ptr %2, align 2, !tbaa !38
  %3 = load i16, ptr %2, align 2, !tbaa !38
  %4 = zext i16 %3 to i32
  %5 = ashr i32 %4, 8
  %6 = load i16, ptr %2, align 2, !tbaa !38
  %7 = zext i16 %6 to i32
  %8 = shl i32 %7, 8
  %9 = or i32 %5, %8
  %10 = trunc i32 %9 to i16
  store i16 %10, ptr %2, align 2, !tbaa !38
  %11 = load i16, ptr %2, align 2, !tbaa !38
  ret i16 %11
}

; Function Attrs: nounwind uwtable
define internal i32 @lc3_read_probe(ptr noundef %0) #0 {
  %2 = alloca i32, align 4
  %3 = alloca ptr, align 8
  %4 = alloca i32, align 4
  %5 = alloca i32, align 4
  %6 = alloca i32, align 4
  store ptr %0, ptr %3, align 8, !tbaa !4
  call void @llvm.lifetime.start.p0(i64 4, ptr %4) #6
  call void @llvm.lifetime.start.p0(i64 4, ptr %5) #6
  %7 = load ptr, ptr %3, align 8, !tbaa !4
  %8 = getelementptr inbounds nuw %struct.AVProbeData, ptr %7, i32 0, i32 2
  %9 = load i32, ptr %8, align 8, !tbaa !9
  %10 = icmp slt i32 %9, 12
  br i1 %10, label %11, label %12

11:                                               ; preds = %1
  store i32 0, ptr %2, align 4
  store i32 1, ptr %6, align 4
  br label %51

12:                                               ; preds = %1
  %13 = load ptr, ptr %3, align 8, !tbaa !4
  %14 = getelementptr inbounds nuw %struct.AVProbeData, ptr %13, i32 0, i32 1
  %15 = load ptr, ptr %14, align 8, !tbaa !13
  %16 = getelementptr inbounds i8, ptr %15, i64 0
  %17 = load i16, ptr %16, align 1, !tbaa !14
  %18 = call zeroext i16 @av_bswap16(i16 noundef zeroext %17) #7
  %19 = zext i16 %18 to i32
  %20 = icmp ne i32 %19, 7372
  br i1 %20, label %29, label %21

21:                                               ; preds = %12
  %22 = load ptr, ptr %3, align 8, !tbaa !4
  %23 = getelementptr inbounds nuw %struct.AVProbeData, ptr %22, i32 0, i32 1
  %24 = load ptr, ptr %23, align 8, !tbaa !13
  %25 = getelementptr inbounds i8, ptr %24, i64 2
  %26 = load i16, ptr %25, align 1, !tbaa !14
  %27 = zext i16 %26 to i64
  %28 = icmp ult i64 %27, 18
  br i1 %28, label %29, label %30

29:                                               ; preds = %21, %12
  store i32 0, ptr %2, align 4
  store i32 1, ptr %6, align 4
  br label %51

30:                                               ; preds = %21
  %31 = load ptr, ptr %3, align 8, !tbaa !4
  %32 = getelementptr inbounds nuw %struct.AVProbeData, ptr %31, i32 0, i32 1
  %33 = load ptr, ptr %32, align 8, !tbaa !13
  %34 = getelementptr inbounds i8, ptr %33, i64 4
  %35 = load i16, ptr %34, align 1, !tbaa !14
  %36 = zext i16 %35 to i32
  %37 = mul nsw i32 %36, 100
  store i32 %37, ptr %5, align 4, !tbaa !15
  %38 = load ptr, ptr %3, align 8, !tbaa !4
  %39 = getelementptr inbounds nuw %struct.AVProbeData, ptr %38, i32 0, i32 1
  %40 = load ptr, ptr %39, align 8, !tbaa !13
  %41 = getelementptr inbounds i8, ptr %40, i64 10
  %42 = load i16, ptr %41, align 1, !tbaa !14
  %43 = zext i16 %42 to i32
  %44 = mul nsw i32 %43, 10
  store i32 %44, ptr %4, align 4, !tbaa !15
  %45 = load i32, ptr %5, align 4, !tbaa !15
  %46 = load i32, ptr %4, align 4, !tbaa !15
  %47 = call i32 @check_frame_length(ptr noundef null, i32 noundef %45, i32 noundef %46)
  %48 = icmp slt i32 %47, 0
  br i1 %48, label %49, label %50

49:                                               ; preds = %30
  store i32 0, ptr %2, align 4
  store i32 1, ptr %6, align 4
  br label %51

50:                                               ; preds = %30
  store i32 100, ptr %2, align 4
  store i32 1, ptr %6, align 4
  br label %51

51:                                               ; preds = %50, %49, %29, %11
  call void @llvm.lifetime.end.p0(i64 4, ptr %5) #6
  call void @llvm.lifetime.end.p0(i64 4, ptr %4) #6
  %52 = load i32, ptr %2, align 4
  ret i32 %52
}