; Function Attrs: mustprogress nofree norecurse nosync nounwind willreturn memory(read, inaccessiblemem: none) uwtable
define internal range(i32 0, 101) i32 @lc3_read_probe(ptr noundef readonly captures(none) %0) #0 {
  %2 = getelementptr inbounds nuw i8, ptr %0, i64 16
  %3 = load i32, ptr %2, align 8, !tbaa !4
  %4 = icmp slt i32 %3, 12
  br i1 %4, label %check_frame_length.exit, label %5

5:                                                ; preds = %1
  %6 = getelementptr inbounds nuw i8, ptr %0, i64 8
  %7 = load ptr, ptr %6, align 8, !tbaa !11
  %8 = load i16, ptr %7, align 1, !tbaa !12
  %.not = icmp eq i16 %8, -13284
  br i1 %.not, label %9, label %check_frame_length.exit

9:                                                ; preds = %5
  %10 = getelementptr inbounds nuw i8, ptr %7, i64 2
  %11 = load i16, ptr %10, align 1, !tbaa !12
  %12 = icmp ult i16 %11, 18
  br i1 %12, label %check_frame_length.exit, label %13

13:                                               ; preds = %9
  %14 = getelementptr inbounds nuw i8, ptr %7, i64 4
  %15 = load i16, ptr %14, align 1, !tbaa !12
  %16 = zext i16 %15 to i32
  %17 = mul nuw nsw i32 %16, 100
  switch i32 %17, label %check_frame_length.exit [
    i32 96000, label %18
    i32 48000, label %18
    i32 32000, label %18
    i32 24000, label %18
    i32 16000, label %18
    i32 8000, label %18
  ]

18:                                               ; preds = %13, %13, %13, %13, %13, %13
  %19 = getelementptr inbounds nuw i8, ptr %7, i64 10
  %20 = load i16, ptr %19, align 1, !tbaa !12
  %21 = zext i16 %20 to i32
  %22 = mul nuw nsw i32 %21, 10
  switch i32 %22, label %23 [
    i32 10000, label %check_frame_length.exit
    i32 7500, label %check_frame_length.exit
    i32 5000, label %check_frame_length.exit
    i32 2500, label %check_frame_length.exit
  ]

23:                                               ; preds = %18
  br label %check_frame_length.exit

check_frame_length.exit:                          ; preds = %18, %18, %18, %18, %23, %13, %5, %9, %1
  %.0 = phi i32 [ 0, %1 ], [ 0, %9 ], [ 0, %5 ], [ 100, %18 ], [ 100, %18 ], [ 100, %18 ], [ 100, %18 ], [ 0, %23 ], [ 0, %13 ]
  ret i32 %.0
}